; Function Attrs: mustprogress nounwind uwtable
define dso_local noundef zeroext i1 @_ZN4llvm8TGParser15ParseObjectListEPNS_10MultiClassE(ptr noundef nonnull align 8 dereferenceable(394) %0, ptr noundef %1) local_unnamed_addr #0 align 2 {
  %3 = getelementptr inbounds nuw i8, ptr %0, i64 40
  br label %4

4:                                                ; preds = %8, %2
  %5 = load i32, ptr %3, align 8
  %6 = add i32 %5, -43
  %7 = icmp ult i32 %6, 12
  br i1 %7, label %8, label %10

8:                                                ; preds = %4
  %9 = tail call noundef zeroext i1 @_ZN4llvm8TGParser11ParseObjectEPNS_10MultiClassE(ptr noundef nonnull align 8 dereferenceable(394) %0, ptr noundef %1)
  br i1 %9, label %10, label %4, !llvm.loop !535

10:                                               ; preds = %4, %8
  ret i1 %7
}